target datalayout = "e-m:e-p270:32:32-p271:32:32-p272:64:64-i64:64-i128:128-f80:128-n8:16:32:64-S128"
target triple = "x86_64-pc-linux-gnu"

%class.Scheduler = type { [200 x %"struct.Scheduler::handType"], [200 x %"struct.Scheduler::groupType"], i32, i32, %"struct.std::atomic", [6 x [200 x %"struct.Scheduler::listType"]], [200 x %"struct.Scheduler::sortType"], i32, %"class.std::vector", %"class.std::vector", %"class.std::vector", i32, i32, %"class.std::vector", %"class.std::vector.0", %class.Timer }
%"struct.Scheduler::handType" = type { i32, i32, [4 x [4 x i32]], i32, i32, i32, i32, i32, i32, i32, i32, i32, i32 }
%"struct.Scheduler::groupType" = type { i32, i32, i32, i32, i32, i32 }
%"struct.std::atomic" = type { %"struct.std::__atomic_base" }
%"struct.std::__atomic_base" = type { i32 }
%"struct.Scheduler::listType" = type { i32, i32, i32 }
%"struct.Scheduler::sortType" = type { i32, i32 }
%"class.std::vector" = type { %"struct.std::_Vector_base" }
%"struct.std::_Vector_base" = type { %"struct.std::_Vector_base<int, std::allocator<int>>::_Vector_impl" }
%"struct.std::_Vector_base<int, std::allocator<int>>::_Vector_impl" = type { %"struct.std::_Vector_base<int, std::allocator<int>>::_Vector_impl_data" }
%"struct.std::_Vector_base<int, std::allocator<int>>::_Vector_impl_data" = type { ptr, ptr, ptr }
%"class.std::vector.0" = type { %"struct.std::_Vector_base.1" }
%"struct.std::_Vector_base.1" = type { %"struct.std::_Vector_base<Timer, std::allocator<Timer>>::_Vector_impl" }
%"struct.std::_Vector_base<Timer, std::allocator<Timer>>::_Vector_impl" = type { %"struct.std::_Vector_base<Timer, std::allocator<Timer>>::_Vector_impl_data" }
%"struct.std::_Vector_base<Timer, std::allocator<Timer>>::_Vector_impl_data" = type { ptr, ptr, ptr }
%class.Timer = type { %"class.std::__cxx11::basic_string", i32, i64, i64, %"class.std::chrono::time_point", i64 }
%"class.std::__cxx11::basic_string" = type { %"struct.std::__cxx11::basic_string<char>::_Alloc_hider", i64, %union.anon }
%"struct.std::__cxx11::basic_string<char>::_Alloc_hider" = type { ptr }
%union.anon = type { i64, [8 x i8] }
%"class.std::chrono::time_point" = type { %"class.std::chrono::duration" }
%"class.std::chrono::duration" = type { i64 }
%struct.schedType = type { i32, i32 }

; Function Attrs: mustprogress nounwind uwtable
define linkonce_odr noundef i32 @_ZStanSt12memory_orderSt23__memory_order_modifier(i32 noundef %0, i32 noundef %1) #5 comdat {
  %3 = alloca i32, align 4
  %4 = alloca i32, align 4
  store i32 %0, ptr %3, align 4
  store i32 %1, ptr %4, align 4
  %5 = load i32, ptr %3, align 4
  %6 = load i32, ptr %4, align 4
  %7 = and i32 %5, %6
  ret i32 %7
}

; Function Attrs: mustprogress nounwind uwtable
define linkonce_odr noundef i32 @_ZNSt13__atomic_baseIiEppEv(ptr noundef nonnull align 4 dereferenceable(4) %0) #5 comdat align 2 {
  %2 = alloca ptr, align 8
  %3 = alloca i32, align 4
  %4 = alloca i32, align 4
  store ptr %0, ptr %2, align 8
  %5 = load ptr, ptr %2, align 8
  %6 = getelementptr inbounds nuw %"struct.std::__atomic_base", ptr %5, i32 0, i32 0
  store i32 1, ptr %3, align 4
  %7 = load i32, ptr %3, align 4
  %8 = atomicrmw add ptr %6, i32 %7 seq_cst, align 4
  %9 = add i32 %8, %7
  store i32 %9, ptr %4, align 4
  %10 = load i32, ptr %4, align 4
  ret i32 %10
}

; Function Attrs: mustprogress nounwind uwtable
define linkonce_odr noundef i32 @_ZNKSt13__atomic_baseIiEcviEv(ptr noundef nonnull align 4 dereferenceable(4) %0) #5 comdat align 2 {
  %2 = alloca ptr, align 8
  %3 = alloca i32, align 4
  %4 = alloca i32, align 4
  %5 = alloca i32, align 4
  %6 = alloca ptr, align 8
  store ptr %0, ptr %6, align 8
  %7 = load ptr, ptr %6, align 8
  store ptr %7, ptr %2, align 8
  store i32 5, ptr %3, align 4
  %8 = load ptr, ptr %2, align 8
  %9 = load i32, ptr %3, align 4
  %10 = call noundef i32 @_ZStanSt12memory_orderSt23__memory_order_modifier(i32 noundef %9, i32 noundef 65535)
  store i32 %10, ptr %4, align 4
  %11 = load i32, ptr %3, align 4
  switch i32 %11, label %12 [
    i32 1, label %14
    i32 2, label %14
    i32 5, label %16
  ]

12:                                               ; preds = %1
  %13 = load atomic i32, ptr %8 monotonic, align 4
  store i32 %13, ptr %5, align 4
  br label %18

14:                                               ; preds = %1, %1
  %15 = load atomic i32, ptr %8 acquire, align 4
  store i32 %15, ptr %5, align 4
  br label %18

16:                                               ; preds = %1
  %17 = load atomic i32, ptr %8 seq_cst, align 4
  store i32 %17, ptr %5, align 4
  br label %18

18:                                               ; preds = %16, %14, %12
  %19 = load i32, ptr %5, align 4
  ret i32 %19
}

; Function Attrs: mustprogress nounwind uwtable
define linkonce_odr noundef nonnull align 4 dereferenceable(4) ptr @_ZNSt6vectorIiSaIiEEixEm(ptr noundef nonnull align 8 dereferenceable(24) %0, i64 noundef %1) #5 comdat align 2 {
  %3 = alloca ptr, align 8
  %4 = alloca i64, align 8
  store ptr %0, ptr %3, align 8
  store i64 %1, ptr %4, align 8
  %5 = load ptr, ptr %3, align 8
  %6 = getelementptr inbounds nuw %"struct.std::_Vector_base", ptr %5, i32 0, i32 0
  %7 = getelementptr inbounds nuw %"struct.std::_Vector_base<int, std::allocator<int>>::_Vector_impl_data", ptr %6, i32 0, i32 0
  %8 = load ptr, ptr %7, align 8
  %9 = load i64, ptr %4, align 8
  %10 = getelementptr inbounds i32, ptr %8, i64 %9
  ret ptr %10
}

; Function Attrs: mustprogress nounwind uwtable
define i64 @_ZN9Scheduler9GetNumberEi(ptr noundef nonnull align 8 dereferenceable(43416) %0, i32 noundef %1) #5 align 2 {
  %3 = alloca %struct.schedType, align 4
  %4 = alloca ptr, align 8
  %5 = alloca i32, align 4
  %6 = alloca i32, align 4
  %7 = alloca i32, align 4
  %8 = alloca ptr, align 8
  %9 = alloca i32, align 4
  %10 = alloca i32, align 4
  store ptr %0, ptr %4, align 8
  store i32 %1, ptr %5, align 4
  %11 = load ptr, ptr %4, align 8
  %12 = load i32, ptr %5, align 4
  store i32 %12, ptr %6, align 4
  %13 = getelementptr inbounds nuw %class.Scheduler, ptr %11, i32 0, i32 8
  %14 = load i32, ptr %6, align 4
  %15 = zext i32 %14 to i64
  %16 = call noundef nonnull align 4 dereferenceable(4) ptr @_ZNSt6vectorIiSaIiEEixEm(ptr noundef nonnull align 8 dereferenceable(24) %13, i64 noundef %15) #3
  %17 = load i32, ptr %16, align 4
  store i32 %17, ptr %7, align 4
  %18 = load i32, ptr %7, align 4
  %19 = icmp eq i32 %18, -1
  br i1 %19, label %20, label %59

20:                                               ; preds = %2
  %21 = getelementptr inbounds nuw %class.Scheduler, ptr %11, i32 0, i32 4
  %22 = call noundef i32 @_ZNKSt13__atomic_baseIiEcviEv(ptr noundef nonnull align 4 dereferenceable(4) %21) #3
  %23 = getelementptr inbounds nuw %class.Scheduler, ptr %11, i32 0, i32 2
  %24 = load i32, ptr %23, align 8
  %25 = sub nsw i32 %24, 1
  %26 = icmp sge i32 %22, %25
  br i1 %26, label %27, label %29

27:                                               ; preds = %20
  %28 = getelementptr inbounds nuw %struct.schedType, ptr %3, i32 0, i32 0
  store i32 -1, ptr %28, align 4
  br label %209

29:                                               ; preds = %20
  %30 = getelementptr inbounds nuw %class.Scheduler, ptr %11, i32 0, i32 4
  %31 = call noundef i32 @_ZNSt13__atomic_baseIiEppEv(ptr noundef nonnull align 4 dereferenceable(4) %30) #3
  store i32 %31, ptr %7, align 4
  %32 = load i32, ptr %7, align 4
  %33 = getelementptr inbounds nuw %class.Scheduler, ptr %11, i32 0, i32 2
  %34 = load i32, ptr %33, align 8
  %35 = icmp sge i32 %32, %34
  br i1 %35, label %36, label %38

36:                                               ; preds = %29
  %37 = getelementptr inbounds nuw %struct.schedType, ptr %3, i32 0, i32 0
  store i32 -1, ptr %37, align 4
  br label %209

38:                                               ; preds = %29
  %39 = load i32, ptr %7, align 4
  %40 = getelementptr inbounds nuw %class.Scheduler, ptr %11, i32 0, i32 8
  %41 = load i32, ptr %6, align 4
  %42 = zext i32 %41 to i64
  %43 = call noundef nonnull align 4 dereferenceable(4) ptr @_ZNSt6vectorIiSaIiEEixEm(ptr noundef nonnull align 8 dereferenceable(24) %40, i64 noundef %42) #3
  store i32 %39, ptr %43, align 4
  %44 = load i32, ptr %7, align 4
  %45 = getelementptr inbounds nuw %class.Scheduler, ptr %11, i32 0, i32 9
  %46 = load i32, ptr %6, align 4
  %47 = zext i32 %46 to i64
  %48 = call noundef nonnull align 4 dereferenceable(4) ptr @_ZNSt6vectorIiSaIiEEixEm(ptr noundef nonnull align 8 dereferenceable(24) %45, i64 noundef %47) #3
  store i32 %44, ptr %48, align 4
  %49 = getelementptr inbounds nuw %class.Scheduler, ptr %11, i32 0, i32 1
  %50 = load i32, ptr %7, align 4
  %51 = sext i32 %50 to i64
  %52 = getelementptr inbounds [200 x %"struct.Scheduler::groupType"], ptr %49, i64 0, i64 %51
  %53 = getelementptr inbounds nuw %"struct.Scheduler::groupType", ptr %52, i32 0, i32 5
  store i32 0, ptr %53, align 4
  %54 = getelementptr inbounds nuw %class.Scheduler, ptr %11, i32 0, i32 1
  %55 = load i32, ptr %7, align 4
  %56 = sext i32 %55 to i64
  %57 = getelementptr inbounds [200 x %"struct.Scheduler::groupType"], ptr %54, i64 0, i64 %56
  %58 = getelementptr inbounds nuw %"struct.Scheduler::groupType", ptr %57, i32 0, i32 3
  store i32 0, ptr %58, align 4
  br label %59

59:                                               ; preds = %38, %2
  %60 = getelementptr inbounds nuw %class.Scheduler, ptr %11, i32 0, i32 1
  %61 = load i32, ptr %7, align 4
  %62 = sext i32 %61 to i64
  %63 = getelementptr inbounds [200 x %"struct.Scheduler::groupType"], ptr %60, i64 0, i64 %62
  %64 = getelementptr inbounds nuw %"struct.Scheduler::groupType", ptr %63, i32 0, i32 0
  %65 = load i32, ptr %64, align 8
  store i32 %65, ptr %9, align 4
  %66 = getelementptr inbounds nuw %class.Scheduler, ptr %11, i32 0, i32 1
  %67 = load i32, ptr %7, align 4
  %68 = sext i32 %67 to i64
  %69 = getelementptr inbounds [200 x %"struct.Scheduler::groupType"], ptr %66, i64 0, i64 %68
  %70 = getelementptr inbounds nuw %"struct.Scheduler::groupType", ptr %69, i32 0, i32 1
  %71 = load i32, ptr %70, align 4
  store i32 %71, ptr %10, align 4
  %72 = getelementptr inbounds nuw %class.Scheduler, ptr %11, i32 0, i32 5
  %73 = load i32, ptr %9, align 4
  %74 = sext i32 %73 to i64
  %75 = getelementptr inbounds [6 x [200 x %"struct.Scheduler::listType"]], ptr %72, i64 0, i64 %74
  %76 = load i32, ptr %10, align 4
  %77 = sext i32 %76 to i64
  %78 = getelementptr inbounds [200 x %"struct.Scheduler::listType"], ptr %75, i64 0, i64 %77
  store ptr %78, ptr %8, align 8
  %79 = load ptr, ptr %8, align 8
  %80 = getelementptr inbounds nuw %"struct.Scheduler::listType", ptr %79, i32 0, i32 0
  %81 = load i32, ptr %80, align 4
  %82 = getelementptr inbounds nuw %struct.schedType, ptr %3, i32 0, i32 0
  store i32 %81, ptr %82, align 4
  %83 = getelementptr inbounds nuw %class.Scheduler, ptr %11, i32 0, i32 0
  %84 = load ptr, ptr %8, align 8
  %85 = getelementptr inbounds nuw %"struct.Scheduler::listType", ptr %84, i32 0, i32 0
  %86 = load i32, ptr %85, align 4
  %87 = sext i32 %86 to i64
  %88 = getelementptr inbounds [200 x %"struct.Scheduler::handType"], ptr %83, i64 0, i64 %87
  %89 = getelementptr inbounds nuw %"struct.Scheduler::handType", ptr %88, i32 0, i32 0
  %90 = load i32, ptr %89, align 8
  %91 = load ptr, ptr %8, align 8
  %92 = getelementptr inbounds nuw %"struct.Scheduler::listType", ptr %91, i32 0, i32 0
  store i32 %90, ptr %92, align 4
  %93 = getelementptr inbounds nuw %class.Scheduler, ptr %11, i32 0, i32 1
  %94 = load i32, ptr %7, align 4
  %95 = sext i32 %94 to i64
  %96 = getelementptr inbounds [200 x %"struct.Scheduler::groupType"], ptr %93, i64 0, i64 %95
  %97 = getelementptr inbounds nuw %"struct.Scheduler::groupType", ptr %96, i32 0, i32 5
  %98 = load i32, ptr %97, align 4
  %99 = icmp eq i32 %98, 0
  br i1 %99, label %100, label %124

100:                                              ; preds = %59
  %101 = getelementptr inbounds nuw %struct.schedType, ptr %3, i32 0, i32 0
  %102 = load i32, ptr %101, align 4
  %103 = getelementptr inbounds nuw %class.Scheduler, ptr %11, i32 0, i32 1
  %104 = load i32, ptr %7, align 4
  %105 = sext i32 %104 to i64
  %106 = getelementptr inbounds [200 x %"struct.Scheduler::groupType"], ptr %103, i64 0, i64 %105
  %107 = getelementptr inbounds nuw %"struct.Scheduler::groupType", ptr %106, i32 0, i32 4
  store i32 %102, ptr %107, align 8
  %108 = getelementptr inbounds nuw %struct.schedType, ptr %3, i32 0, i32 1
  store i32 -1, ptr %108, align 4
  %109 = getelementptr inbounds nuw %class.Scheduler, ptr %11, i32 0, i32 0
  %110 = getelementptr inbounds nuw %struct.schedType, ptr %3, i32 0, i32 0
  %111 = load i32, ptr %110, align 4
  %112 = sext i32 %111 to i64
  %113 = getelementptr inbounds [200 x %"struct.Scheduler::handType"], ptr %109, i64 0, i64 %112
  %114 = getelementptr inbounds nuw %"struct.Scheduler::handType", ptr %113, i32 0, i32 5
  %115 = load i32, ptr %114, align 8
  %116 = icmp eq i32 %115, 4
  %117 = select i1 %116, i32 1, i32 0
  %118 = getelementptr inbounds nuw %class.Scheduler, ptr %11, i32 0, i32 0
  %119 = getelementptr inbounds nuw %struct.schedType, ptr %3, i32 0, i32 0
  %120 = load i32, ptr %119, align 4
  %121 = sext i32 %120 to i64
  %122 = getelementptr inbounds [200 x %"struct.Scheduler::handType"], ptr %118, i64 0, i64 %121
  %123 = getelementptr inbounds nuw %"struct.Scheduler::handType", ptr %122, i32 0, i32 11
  store i32 %117, ptr %123, align 8
  br label %179

124:                                              ; preds = %59
  %125 = getelementptr inbounds nuw %class.Scheduler, ptr %11, i32 0, i32 1
  %126 = load i32, ptr %7, align 4
  %127 = sext i32 %126 to i64
  %128 = getelementptr inbounds [200 x %"struct.Scheduler::groupType"], ptr %125, i64 0, i64 %127
  %129 = getelementptr inbounds nuw %"struct.Scheduler::groupType", ptr %128, i32 0, i32 4
  %130 = load i32, ptr %129, align 8
  %131 = getelementptr inbounds nuw %struct.schedType, ptr %3, i32 0, i32 1
  store i32 %130, ptr %131, align 4
  %132 = getelementptr inbounds nuw %class.Scheduler, ptr %11, i32 0, i32 0
  %133 = getelementptr inbounds nuw %struct.schedType, ptr %3, i32 0, i32 0
  %134 = load i32, ptr %133, align 4
  %135 = sext i32 %134 to i64
  %136 = getelementptr inbounds [200 x %"struct.Scheduler::handType"], ptr %132, i64 0, i64 %135
  %137 = getelementptr inbounds nuw %"struct.Scheduler::handType", ptr %136, i32 0, i32 4
  %138 = load i32, ptr %137, align 4
  %139 = getelementptr inbounds nuw %class.Scheduler, ptr %11, i32 0, i32 0
  %140 = getelementptr inbounds nuw %struct.schedType, ptr %3, i32 0, i32 1
  %141 = load i32, ptr %140, align 4
  %142 = sext i32 %141 to i64
  %143 = getelementptr inbounds [200 x %"struct.Scheduler::handType"], ptr %139, i64 0, i64 %142
  %144 = getelementptr inbounds nuw %"struct.Scheduler::handType", ptr %143, i32 0, i32 4
  %145 = load i32, ptr %144, align 4
  %146 = icmp eq i32 %138, %145
  br i1 %146, label %147, label %154

147:                                              ; preds = %124
  %148 = getelementptr inbounds nuw %class.Scheduler, ptr %11, i32 0, i32 0
  %149 = getelementptr inbounds nuw %struct.schedType, ptr %3, i32 0, i32 0
  %150 = load i32, ptr %149, align 4
  %151 = sext i32 %150 to i64
  %152 = getelementptr inbounds [200 x %"struct.Scheduler::handType"], ptr %148, i64 0, i64 %151
  %153 = getelementptr inbounds nuw %"struct.Scheduler::handType", ptr %152, i32 0, i32 11
  store i32 0, ptr %153, align 8
  br label %178

154:                                              ; preds = %124
  %155 = getelementptr inbounds nuw %class.Scheduler, ptr %11, i32 0, i32 0
  %156 = getelementptr inbounds nuw %struct.schedType, ptr %3, i32 0, i32 0
  %157 = load i32, ptr %156, align 4
  %158 = sext i32 %157 to i64
  %159 = getelementptr inbounds [200 x %"struct.Scheduler::handType"], ptr %155, i64 0, i64 %158
  %160 = getelementptr inbounds nuw %"struct.Scheduler::handType", ptr %159, i32 0, i32 5
  %161 = load i32, ptr %160, align 8
  %162 = icmp eq i32 %161, 4
  br i1 %162, label %163, label %170

163:                                              ; preds = %154
  %164 = getelementptr inbounds nuw %class.Scheduler, ptr %11, i32 0, i32 0
  %165 = getelementptr inbounds nuw %struct.schedType, ptr %3, i32 0, i32 0
  %166 = load i32, ptr %165, align 4
  %167 = sext i32 %166 to i64
  %168 = getelementptr inbounds [200 x %"struct.Scheduler::handType"], ptr %164, i64 0, i64 %167
  %169 = getelementptr inbounds nuw %"struct.Scheduler::handType", ptr %168, i32 0, i32 11
  store i32 1, ptr %169, align 8
  br label %177

170:                                              ; preds = %154
  %171 = getelementptr inbounds nuw %class.Scheduler, ptr %11, i32 0, i32 0
  %172 = getelementptr inbounds nuw %struct.schedType, ptr %3, i32 0, i32 0
  %173 = load i32, ptr %172, align 4
  %174 = sext i32 %173 to i64
  %175 = getelementptr inbounds [200 x %"struct.Scheduler::handType"], ptr %171, i64 0, i64 %174
  %176 = getelementptr inbounds nuw %"struct.Scheduler::handType", ptr %175, i32 0, i32 11
  store i32 0, ptr %176, align 8
  br label %177

177:                                              ; preds = %170, %163
  br label %178

178:                                              ; preds = %177, %147
  br label %179

179:                                              ; preds = %178, %100
  %180 = getelementptr inbounds nuw %class.Scheduler, ptr %11, i32 0, i32 1
  %181 = load i32, ptr %7, align 4
  %182 = sext i32 %181 to i64
  %183 = getelementptr inbounds [200 x %"struct.Scheduler::groupType"], ptr %180, i64 0, i64 %182
  %184 = getelementptr inbounds nuw %"struct.Scheduler::groupType", ptr %183, i32 0, i32 5
  %185 = load i32, ptr %184, align 4
  %186 = add nsw i32 %185, 1
  store i32 %186, ptr %184, align 4
  %187 = getelementptr inbounds nuw %class.Scheduler, ptr %11, i32 0, i32 0
  %188 = getelementptr inbounds nuw %struct.schedType, ptr %3, i32 0, i32 0
  %189 = load i32, ptr %188, align 4
  %190 = sext i32 %189 to i64
  %191 = getelementptr inbounds [200 x %"struct.Scheduler::handType"], ptr %187, i64 0, i64 %190
  %192 = getelementptr inbounds nuw %"struct.Scheduler::handType", ptr %191, i32 0, i32 6
  store i32 %185, ptr %192, align 4
  %193 = getelementptr inbounds nuw %struct.schedType, ptr %3, i32 0, i32 0
  %194 = load i32, ptr %193, align 4
  %195 = getelementptr inbounds nuw %class.Scheduler, ptr %11, i32 0, i32 10
  %196 = load i32, ptr %6, align 4
  %197 = zext i32 %196 to i64
  %198 = call noundef nonnull align 4 dereferenceable(4) ptr @_ZNSt6vectorIiSaIiEEixEm(ptr noundef nonnull align 8 dereferenceable(24) %195, i64 noundef %197) #3
  store i32 %194, ptr %198, align 4
  %199 = load ptr, ptr %8, align 8
  %200 = getelementptr inbounds nuw %"struct.Scheduler::listType", ptr %199, i32 0, i32 0
  %201 = load i32, ptr %200, align 4
  %202 = icmp eq i32 %201, -1
  br i1 %202, label %203, label %208

203:                                              ; preds = %179
  %204 = getelementptr inbounds nuw %class.Scheduler, ptr %11, i32 0, i32 8
  %205 = load i32, ptr %6, align 4
  %206 = zext i32 %205 to i64
  %207 = call noundef nonnull align 4 dereferenceable(4) ptr @_ZNSt6vectorIiSaIiEEixEm(ptr noundef nonnull align 8 dereferenceable(24) %204, i64 noundef %206) #3
  store i32 -1, ptr %207, align 4
  br label %208

208:                                              ; preds = %203, %179
  br label %209

209:                                              ; preds = %208, %36, %27
  %210 = load i64, ptr %3, align 4
  ret i64 %210
}