; Function Attrs: mustprogress nofree norecurse nounwind willreturn memory(readwrite, inaccessiblemem: none) uwtable
define i64 @_ZN9Scheduler9GetNumberEi(ptr nocapture noundef nonnull align 8 dereferenceable(43416) %0, i32 noundef %1) local_unnamed_addr #14 align 2 {
  %3 = getelementptr inbounds nuw i8, ptr %0, i64 43216
  %4 = zext i32 %1 to i64
  %5 = load ptr, ptr %3, align 8
  %6 = getelementptr inbounds i32, ptr %5, i64 %4
  %7 = load i32, ptr %6, align 4
  %8 = icmp eq i32 %7, -1
  br i1 %8, label %9, label %._crit_edge

._crit_edge:                                      ; preds = %2
  %.pre = sext i32 %7 to i64
  br label %30

9:                                                ; preds = %2
  %10 = getelementptr inbounds nuw i8, ptr %0, i64 27208
  %11 = load atomic i32, ptr %10 seq_cst, align 8
  %12 = getelementptr inbounds nuw i8, ptr %0, i64 27200
  %13 = load i32, ptr %12, align 8
  %14 = add nsw i32 %13, -1
  %.not = icmp slt i32 %11, %14
  br i1 %.not, label %15, label %82

15:                                               ; preds = %9
  %16 = atomicrmw add ptr %10, i32 1 seq_cst, align 4
  %17 = add i32 %16, 1
  %18 = load i32, ptr %12, align 8
  %.not36 = icmp slt i32 %17, %18
  br i1 %.not36, label %19, label %82

19:                                               ; preds = %15
  %20 = load ptr, ptr %3, align 8
  %21 = getelementptr inbounds i32, ptr %20, i64 %4
  store i32 %17, ptr %21, align 4
  %22 = getelementptr inbounds nuw i8, ptr %0, i64 43240
  %23 = load ptr, ptr %22, align 8
  %24 = getelementptr inbounds i32, ptr %23, i64 %4
  store i32 %17, ptr %24, align 4
  %25 = getelementptr inbounds nuw i8, ptr %0, i64 22400
  %26 = sext i32 %17 to i64
  %27 = getelementptr inbounds [200 x %"struct.Scheduler::groupType"], ptr %25, i64 0, i64 %26
  %28 = getelementptr inbounds nuw i8, ptr %27, i64 20
  store i32 0, ptr %28, align 4
  %29 = getelementptr inbounds nuw i8, ptr %27, i64 12
  store i32 0, ptr %29, align 4
  br label %30

30:                                               ; preds = %._crit_edge, %19
  %.pre-phi = phi i64 [ %.pre, %._crit_edge ], [ %26, %19 ]
  %31 = getelementptr inbounds nuw i8, ptr %0, i64 22400
  %32 = getelementptr inbounds [200 x %"struct.Scheduler::groupType"], ptr %31, i64 0, i64 %.pre-phi
  %33 = load i32, ptr %32, align 8
  %34 = getelementptr inbounds nuw i8, ptr %32, i64 4
  %35 = load i32, ptr %34, align 4
  %36 = getelementptr inbounds nuw i8, ptr %0, i64 27212
  %37 = sext i32 %33 to i64
  %38 = sext i32 %35 to i64
  %39 = getelementptr inbounds [6 x [200 x %"struct.Scheduler::listType"]], ptr %36, i64 0, i64 %37, i64 %38
  %40 = load i32, ptr %39, align 4
  %41 = sext i32 %40 to i64
  %42 = getelementptr inbounds [200 x %"struct.Scheduler::handType"], ptr %0, i64 0, i64 %41
  %43 = load i32, ptr %42, align 8
  store i32 %43, ptr %39, align 4
  %44 = getelementptr inbounds nuw i8, ptr %32, i64 20
  %45 = load i32, ptr %44, align 4
  %46 = icmp eq i32 %45, 0
  %47 = getelementptr inbounds nuw i8, ptr %32, i64 16
  br i1 %46, label %48, label %54

48:                                               ; preds = %30
  store i32 %40, ptr %47, align 8
  %49 = getelementptr inbounds nuw i8, ptr %42, i64 80
  %50 = load i32, ptr %49, align 8
  %51 = icmp eq i32 %50, 4
  %52 = zext i1 %51 to i32
  %53 = getelementptr inbounds nuw i8, ptr %42, i64 104
  store i32 %52, ptr %53, align 8
  br label %71

54:                                               ; preds = %30
  %55 = load i32, ptr %47, align 8
  %56 = getelementptr inbounds nuw i8, ptr %42, i64 76
  %57 = load i32, ptr %56, align 4
  %58 = sext i32 %55 to i64
  %59 = getelementptr inbounds [200 x %"struct.Scheduler::handType"], ptr %0, i64 0, i64 %58, i32 4
  %60 = load i32, ptr %59, align 4
  %61 = icmp eq i32 %57, %60
  br i1 %61, label %62, label %64

62:                                               ; preds = %54
  %63 = getelementptr inbounds nuw i8, ptr %42, i64 104
  store i32 0, ptr %63, align 8
  br label %71

64:                                               ; preds = %54
  %65 = getelementptr inbounds nuw i8, ptr %42, i64 80
  %66 = load i32, ptr %65, align 8
  %67 = icmp eq i32 %66, 4
  %68 = getelementptr inbounds nuw i8, ptr %42, i64 104
  br i1 %67, label %69, label %70

69:                                               ; preds = %64
  store i32 1, ptr %68, align 8
  br label %71

70:                                               ; preds = %64
  store i32 0, ptr %68, align 8
  br label %71

71:                                               ; preds = %62, %70, %69, %48
  %.sroa.14.1 = phi i32 [ -1, %48 ], [ %55, %62 ], [ %55, %69 ], [ %55, %70 ]
  %72 = add nsw i32 %45, 1
  store i32 %72, ptr %44, align 4
  %73 = getelementptr inbounds nuw i8, ptr %42, i64 84
  store i32 %45, ptr %73, align 4
  %74 = getelementptr inbounds nuw i8, ptr %0, i64 43264
  %75 = load ptr, ptr %74, align 8
  %76 = getelementptr inbounds i32, ptr %75, i64 %4
  store i32 %40, ptr %76, align 4
  %77 = load i32, ptr %39, align 4
  %78 = icmp eq i32 %77, -1
  br i1 %78, label %79, label %82

79:                                               ; preds = %71
  %80 = load ptr, ptr %3, align 8
  %81 = getelementptr inbounds i32, ptr %80, i64 %4
  store i32 -1, ptr %81, align 4
  br label %82

82:                                               ; preds = %15, %9, %71, %79
  %.sroa.0.0 = phi i32 [ %40, %79 ], [ %40, %71 ], [ -1, %9 ], [ -1, %15 ]
  %.sroa.14.0 = phi i32 [ %.sroa.14.1, %79 ], [ %.sroa.14.1, %71 ], [ undef, %9 ], [ undef, %15 ]
  %.sroa.14.0.insert.ext = zext i32 %.sroa.14.0 to i64
  %.sroa.14.0.insert.shift = shl nuw i64 %.sroa.14.0.insert.ext, 32
  %.sroa.0.0.insert.ext = zext i32 %.sroa.0.0 to i64
  %.sroa.0.0.insert.insert = or disjoint i64 %.sroa.14.0.insert.shift, %.sroa.0.0.insert.ext
  ret i64 %.sroa.0.0.insert.insert
}